target datalayout = "e-m:e-p270:32:32-p271:32:32-p272:64:64-i64:64-i128:128-f80:128-n8:16:32:64-S128"
target triple = "x86_64-pc-linux-gnu"

%struct.redisServer = type { i32, i64, ptr, ptr, ptr, i32, i32, i32, i32, i32, ptr, ptr, ptr, ptr, ptr, i32, i32, i32, i32, i64, i32, i32, i32, i32, ptr, i32, i32, [41 x i8], i32, i64, i32, i32, i32, ptr, ptr, i32, i32, i64, ptr, ptr, ptr, ptr, [2 x i32], i32, i32, i32, i32, i32, i32, [16 x ptr], i32, ptr, ptr, i32, [8 x %struct.connListener], i32, %struct.connListener, ptr, ptr, ptr, ptr, ptr, ptr, ptr, ptr, ptr, ptr, i32, ptr, i32, ptr, [3 x %struct.pause_event], [256 x i8], ptr, i64, i32, i32, [128 x i32], i32, i32, i64, i32, i32, i32, i32, i32, i64, i64, i64, i64, i64, i64, i64, i64, i64, i64, double, i64, i64, i64, i64, i64, i64, i64, i64, i64, i64, i64, i64, i64, i64, i64, i64, i64, i64, i64, i64, i64, double, i64, i64, i64, i64, i64, ptr, i64, i64, i64, %struct.malloc_stats, i64, i64, i64, i64, i64, i64, i64, i64, i64, i64, i64, i64, double, [4 x i64], i64, i64, i64, i64, [128 x i64], [128 x i64], i64, i64, [7 x %struct.anon], i64, i64, i64, i64, i64, i64, [4 x %struct.durationStats], i32, i32, i32, i32, i32, i32, i32, i32, i32, i32, i32, i32, i64, i32, i32, i32, i32, i64, i64, i32, i32, i32, i32, i32, ptr, [3 x %struct.clientBufferLimitsConfig], i32, i32, i32, ptr, i32, i32, i32, i32, i32, i32, ptr, ptr, i32, i32, i64, i64, i64, i64, i64, i32, i32, ptr, i32, i32, i64, i64, i64, i64, i64, i32, i32, i64, i32, i32, i32, i32, i32, i32, i32, i32, ptr, i32, i64, i64, i64, i64, i32, ptr, i32, ptr, i32, i32, i32, i64, i64, i64, i64, i32, i32, i32, i32, i32, i32, ptr, i32, i32, ptr, i32, i32, i32, [2 x i32], i32, %struct.redisOpArray, i32, ptr, i32, ptr, i32, i32, i32, i32, i32, i32, i32, [41 x i8], [41 x i8], i64, i64, i64, i64, i32, i32, ptr, i64, i64, %struct.replDataBuf, i64, i64, i32, i32, i32, i32, i32, i32, i32, i32, i32, i64, ptr, i64, ptr, ptr, ptr, i32, i32, ptr, ptr, i32, i32, i32, i64, i64, i64, i64, ptr, ptr, i32, ptr, i64, i32, i32, i32, i64, i32, i32, i32, i32, ptr, i32, i32, [41 x i8], i64, i32, ptr, i32, i32, i64, i64, i32, i32, i32, i32, i32, i64, [3 x i32], i32, i32, i32, [10 x i32], ptr, ptr, i32, i64, ptr, ptr, i32, i32, i32, i32, i64, i64, i64, i64, i64, i64, i64, i64, i64, i64, i32, i32, i64, i64, i32, i64, i64, i64, i64, i64, ptr, ptr, i32, ptr, i32, i32, i32, i32, i64, i64, ptr, ptr, i32, i32, i32, i32, i32, ptr, ptr, ptr, i32, i32, i32, i32, i32, i32, i32, i64, i32, i32, i64, i32, i32, i32, i32, i32, i32, i32, i64, ptr, ptr, i64, ptr, i32, %struct.aclInfo, i32, i64, i32, i32, i32, %struct.redisTLSContextConfig, ptr, ptr, ptr, ptr, ptr, i64, i32, ptr, i32, i32, i32, i64, i32, ptr }
%struct.connListener = type { [16 x i32], i32, ptr, i32, i32, ptr, ptr }
%struct.pause_event = type { i32, i64 }
%struct.malloc_stats = type { i64, i64, i64, i64, i64, i64, i64, i64, i64, i64, i64 }
%struct.anon = type { i64, i64, [16 x i64], i32 }
%struct.durationStats = type { i64, i64, i64 }
%struct.clientBufferLimitsConfig = type { i64, i64, i64 }
%struct.redisOpArray = type { ptr, i32, i32 }
%struct.replDataBuf = type { ptr, i64, i64, i64, i64 }
%struct.aclInfo = type { i64, i64, i64, i64 }
%struct.redisTLSContextConfig = type { ptr, ptr, ptr, ptr, ptr, ptr, ptr, ptr, ptr, ptr, ptr, ptr, i32, i32, i32, i32 }
%struct.redisObject = type { i32, i32, ptr }

@server = external global %struct.redisServer, align 8
@.str = private unnamed_addr constant [9 x i8] c"defrag.c\00", align 1
@.str.1 = private unnamed_addr constant [24 x i8] c"Unknown string encoding\00", align 1

; Function Attrs: nounwind uwtable
define dso_local ptr @activeDefragSds(ptr noundef %0) #0 {
  %2 = alloca ptr, align 8
  %3 = alloca ptr, align 8
  %4 = alloca ptr, align 8
  %5 = alloca ptr, align 8
  %6 = alloca i64, align 8
  %7 = alloca i32, align 4
  store ptr %0, ptr %3, align 8, !tbaa !41
  call void @llvm.lifetime.start.p0(i64 8, ptr %4) #10
  %8 = load ptr, ptr %3, align 8, !tbaa !41
  %9 = call ptr @sdsAllocPtr(ptr noundef %8)
  store ptr %9, ptr %4, align 8, !tbaa !5
  call void @llvm.lifetime.start.p0(i64 8, ptr %5) #10
  %10 = load ptr, ptr %4, align 8, !tbaa !5
  %11 = call ptr @activeDefragAlloc(ptr noundef %10)
  store ptr %11, ptr %5, align 8, !tbaa !5
  %12 = load ptr, ptr %5, align 8, !tbaa !5
  %13 = icmp ne ptr %12, null
  br i1 %13, label %14, label %24

14:                                               ; preds = %1
  call void @llvm.lifetime.start.p0(i64 8, ptr %6) #10
  %15 = load ptr, ptr %3, align 8, !tbaa !41
  %16 = load ptr, ptr %4, align 8, !tbaa !5
  %17 = ptrtoint ptr %15 to i64
  %18 = ptrtoint ptr %16 to i64
  %19 = sub i64 %17, %18
  store i64 %19, ptr %6, align 8, !tbaa !39
  %20 = load ptr, ptr %5, align 8, !tbaa !5
  %21 = load i64, ptr %6, align 8, !tbaa !39
  %22 = getelementptr inbounds nuw i8, ptr %20, i64 %21
  store ptr %22, ptr %3, align 8, !tbaa !41
  %23 = load ptr, ptr %3, align 8, !tbaa !41
  store ptr %23, ptr %2, align 8
  store i32 1, ptr %7, align 4
  call void @llvm.lifetime.end.p0(i64 8, ptr %6) #10
  br label %25

24:                                               ; preds = %1
  store ptr null, ptr %2, align 8
  store i32 1, ptr %7, align 4
  br label %25

25:                                               ; preds = %24, %14
  call void @llvm.lifetime.end.p0(i64 8, ptr %5) #10
  call void @llvm.lifetime.end.p0(i64 8, ptr %4) #10
  %26 = load ptr, ptr %2, align 8
  ret ptr %26
}

; Function Attrs: nounwind uwtable
define dso_local ptr @activeDefragAlloc(ptr noundef %0) #0 {
  %2 = alloca ptr, align 8
  %3 = alloca ptr, align 8
  %4 = alloca i64, align 8
  %5 = alloca ptr, align 8
  %6 = alloca i32, align 4
  store ptr %0, ptr %3, align 8, !tbaa !5
  call void @llvm.lifetime.start.p0(i64 8, ptr %4) #10
  call void @llvm.lifetime.start.p0(i64 8, ptr %5) #10
  %7 = load ptr, ptr %3, align 8, !tbaa !5
  %8 = call i32 @je_get_defrag_hint(ptr noundef %7)
  %9 = icmp ne i32 %8, 0
  br i1 %9, label %13, label %10

10:                                               ; preds = %1
  %11 = load i64, ptr getelementptr inbounds nuw (%struct.redisServer, ptr @server, i32 0, i32 107), align 8, !tbaa !9
  %12 = add nsw i64 %11, 1
  store i64 %12, ptr getelementptr inbounds nuw (%struct.redisServer, ptr @server, i32 0, i32 107), align 8, !tbaa !9
  store ptr null, ptr %2, align 8
  store i32 1, ptr %6, align 4
  br label %25

13:                                               ; preds = %1
  %14 = load ptr, ptr %3, align 8, !tbaa !5
  %15 = call i64 @je_malloc_usable_size(ptr noundef %14) #10
  store i64 %15, ptr %4, align 8, !tbaa !39
  %16 = load i64, ptr %4, align 8, !tbaa !39
  %17 = call noalias ptr @zmalloc_no_tcache(i64 noundef %16)
  store ptr %17, ptr %5, align 8, !tbaa !5
  %18 = load ptr, ptr %5, align 8, !tbaa !5
  %19 = load ptr, ptr %3, align 8, !tbaa !5
  %20 = load i64, ptr %4, align 8, !tbaa !39
  call void @llvm.memcpy.p0.p0.i64(ptr align 1 %18, ptr align 1 %19, i64 %20, i1 false)
  %21 = load ptr, ptr %3, align 8, !tbaa !5
  call void @zfree_no_tcache(ptr noundef %21)
  %22 = load i64, ptr getelementptr inbounds nuw (%struct.redisServer, ptr @server, i32 0, i32 106), align 8, !tbaa !40
  %23 = add nsw i64 %22, 1
  store i64 %23, ptr getelementptr inbounds nuw (%struct.redisServer, ptr @server, i32 0, i32 106), align 8, !tbaa !40
  %24 = load ptr, ptr %5, align 8, !tbaa !5
  store ptr %24, ptr %2, align 8
  store i32 1, ptr %6, align 4
  br label %25

25:                                               ; preds = %13, %10
  call void @llvm.lifetime.end.p0(i64 8, ptr %5) #10
  call void @llvm.lifetime.end.p0(i64 8, ptr %4) #10
  %26 = load ptr, ptr %2, align 8
  ret ptr %26
}

; Function Attrs: nounwind uwtable
define dso_local ptr @activeDefragStringObEx(ptr noundef %0, i32 noundef %1) #0 {
  %3 = alloca ptr, align 8
  %4 = alloca ptr, align 8
  %5 = alloca i32, align 4
  %6 = alloca ptr, align 8
  %7 = alloca i32, align 4
  %8 = alloca ptr, align 8
  %9 = alloca i64, align 8
  store ptr %0, ptr %4, align 8, !tbaa !42
  store i32 %1, ptr %5, align 4, !tbaa !44
  call void @llvm.lifetime.start.p0(i64 8, ptr %6) #10
  store ptr null, ptr %6, align 8, !tbaa !42
  %10 = load ptr, ptr %4, align 8, !tbaa !42
  %11 = getelementptr inbounds nuw %struct.redisObject, ptr %10, i32 0, i32 1
  %12 = load i32, ptr %11, align 4, !tbaa !45
  %13 = load i32, ptr %5, align 4, !tbaa !44
  %14 = icmp ne i32 %12, %13
  br i1 %14, label %15, label %16

15:                                               ; preds = %2
  store ptr null, ptr %3, align 8
  store i32 1, ptr %7, align 4
  br label %95

16:                                               ; preds = %2
  %17 = load ptr, ptr %4, align 8, !tbaa !42
  %18 = load i32, ptr %17, align 8
  %19 = and i32 %18, 15
  %20 = icmp ne i32 %19, 0
  br i1 %20, label %27, label %21

21:                                               ; preds = %16
  %22 = load ptr, ptr %4, align 8, !tbaa !42
  %23 = load i32, ptr %22, align 8
  %24 = lshr i32 %23, 4
  %25 = and i32 %24, 15
  %26 = icmp ne i32 %25, 8
  br i1 %26, label %27, label %34

27:                                               ; preds = %21, %16
  %28 = load ptr, ptr %4, align 8, !tbaa !42
  %29 = call ptr @activeDefragAlloc(ptr noundef %28)
  store ptr %29, ptr %6, align 8, !tbaa !42
  %30 = icmp ne ptr %29, null
  br i1 %30, label %31, label %33

31:                                               ; preds = %27
  %32 = load ptr, ptr %6, align 8, !tbaa !42
  store ptr %32, ptr %4, align 8, !tbaa !42
  br label %33

33:                                               ; preds = %31, %27
  br label %34

34:                                               ; preds = %33, %21
  %35 = load ptr, ptr %4, align 8, !tbaa !42
  %36 = load i32, ptr %35, align 8
  %37 = and i32 %36, 15
  %38 = icmp eq i32 %37, 0
  br i1 %38, label %39, label %93

39:                                               ; preds = %34
  %40 = load ptr, ptr %4, align 8, !tbaa !42
  %41 = load i32, ptr %40, align 8
  %42 = lshr i32 %41, 4
  %43 = and i32 %42, 15
  %44 = icmp eq i32 %43, 0
  br i1 %44, label %45, label %57

45:                                               ; preds = %39
  call void @llvm.lifetime.start.p0(i64 8, ptr %8) #10
  %46 = load ptr, ptr %4, align 8, !tbaa !42
  %47 = getelementptr inbounds nuw %struct.redisObject, ptr %46, i32 0, i32 2
  %48 = load ptr, ptr %47, align 8, !tbaa !47
  %49 = call ptr @activeDefragSds(ptr noundef %48)
  store ptr %49, ptr %8, align 8, !tbaa !41
  %50 = load ptr, ptr %8, align 8, !tbaa !41
  %51 = icmp ne ptr %50, null
  br i1 %51, label %52, label %56

52:                                               ; preds = %45
  %53 = load ptr, ptr %8, align 8, !tbaa !41
  %54 = load ptr, ptr %4, align 8, !tbaa !42
  %55 = getelementptr inbounds nuw %struct.redisObject, ptr %54, i32 0, i32 2
  store ptr %53, ptr %55, align 8, !tbaa !47
  br label %56

56:                                               ; preds = %52, %45
  call void @llvm.lifetime.end.p0(i64 8, ptr %8) #10
  br label %92

57:                                               ; preds = %39
  %58 = load ptr, ptr %4, align 8, !tbaa !42
  %59 = load i32, ptr %58, align 8
  %60 = lshr i32 %59, 4
  %61 = and i32 %60, 15
  %62 = icmp eq i32 %61, 8
  br i1 %62, label %63, label %83

63:                                               ; preds = %57
  call void @llvm.lifetime.start.p0(i64 8, ptr %9) #10
  %64 = load ptr, ptr %4, align 8, !tbaa !42
  %65 = getelementptr inbounds nuw %struct.redisObject, ptr %64, i32 0, i32 2
  %66 = load ptr, ptr %65, align 8, !tbaa !47
  %67 = ptrtoint ptr %66 to i64
  %68 = load ptr, ptr %4, align 8, !tbaa !42
  %69 = ptrtoint ptr %68 to i64
  %70 = sub nsw i64 %67, %69
  store i64 %70, ptr %9, align 8, !tbaa !39
  %71 = load ptr, ptr %4, align 8, !tbaa !42
  %72 = call ptr @activeDefragAlloc(ptr noundef %71)
  store ptr %72, ptr %6, align 8, !tbaa !42
  %73 = icmp ne ptr %72, null
  br i1 %73, label %74, label %82

74:                                               ; preds = %63
  %75 = load ptr, ptr %6, align 8, !tbaa !42
  %76 = ptrtoint ptr %75 to i64
  %77 = load i64, ptr %9, align 8, !tbaa !39
  %78 = add nsw i64 %76, %77
  %79 = inttoptr i64 %78 to ptr
  %80 = load ptr, ptr %6, align 8, !tbaa !42
  %81 = getelementptr inbounds nuw %struct.redisObject, ptr %80, i32 0, i32 2
  store ptr %79, ptr %81, align 8, !tbaa !47
  br label %82

82:                                               ; preds = %74, %63
  call void @llvm.lifetime.end.p0(i64 8, ptr %9) #10
  br label %91

83:                                               ; preds = %57
  %84 = load ptr, ptr %4, align 8, !tbaa !42
  %85 = load i32, ptr %84, align 8
  %86 = lshr i32 %85, 4
  %87 = and i32 %86, 15
  %88 = icmp ne i32 %87, 1
  br i1 %88, label %89, label %90

89:                                               ; preds = %83
  call void (ptr, i32, ptr, ...) @_serverPanic(ptr noundef @.str, i32 noundef 135, ptr noundef @.str.1)
  call void @abort() #11
  unreachable

90:                                               ; preds = %83
  br label %91

91:                                               ; preds = %90, %82
  br label %92

92:                                               ; preds = %91, %56
  br label %93

93:                                               ; preds = %92, %34
  %94 = load ptr, ptr %6, align 8, !tbaa !42
  store ptr %94, ptr %3, align 8
  store i32 1, ptr %7, align 4
  br label %95

95:                                               ; preds = %93, %15
  call void @llvm.lifetime.end.p0(i64 8, ptr %6) #10
  %96 = load ptr, ptr %3, align 8
  ret ptr %96
}