; Function Attrs: nounwind uwtable
define dso_local ptr @activeDefragStringObEx(ptr noundef %0, i32 noundef %1) local_unnamed_addr #0 {
  %3 = getelementptr inbounds nuw i8, ptr %0, i64 4
  %4 = load i32, ptr %3, align 4, !tbaa !39
  %.not = icmp eq i32 %4, %1
  br i1 %.not, label %5, label %60

5:                                                ; preds = %2
  %6 = load i32, ptr %0, align 8
  %7 = and i32 %6, 255
  %or.cond = icmp eq i32 %7, 128
  br i1 %or.cond, label %18, label %8

8:                                                ; preds = %5
  %9 = tail call i32 @je_get_defrag_hint(ptr noundef nonnull %0) #10
  %.not.i = icmp eq i32 %9, 0
  br i1 %.not.i, label %10, label %13

10:                                               ; preds = %8
  %11 = load i64, ptr getelementptr inbounds nuw (i8, ptr @server, i64 2592), align 8, !tbaa !5
  %12 = add nsw i64 %11, 1
  store i64 %12, ptr getelementptr inbounds nuw (i8, ptr @server, i64 2592), align 8, !tbaa !5
  br label %activeDefragAlloc.exit

13:                                               ; preds = %8
  %14 = tail call i64 @je_malloc_usable_size(ptr noundef nonnull %0) #10
  %15 = tail call noalias ptr @zmalloc_no_tcache(i64 noundef %14) #10
  tail call void @llvm.memcpy.p0.p0.i64(ptr align 1 %15, ptr nonnull align 1 %0, i64 %14, i1 false)
  tail call void @zfree_no_tcache(ptr noundef nonnull %0) #10
  %16 = load i64, ptr getelementptr inbounds nuw (i8, ptr @server, i64 2584), align 8, !tbaa !38
  %17 = add nsw i64 %16, 1
  store i64 %17, ptr getelementptr inbounds nuw (i8, ptr @server, i64 2584), align 8, !tbaa !38
  br label %activeDefragAlloc.exit

activeDefragAlloc.exit:                           ; preds = %10, %13
  %.0.i = phi ptr [ %15, %13 ], [ null, %10 ]
  %.not30 = icmp eq ptr %.0.i, null
  %spec.select34 = select i1 %.not30, ptr %0, ptr %.0.i
  %.pre = load i32, ptr %spec.select34, align 8
  br label %18

18:                                               ; preds = %activeDefragAlloc.exit, %5
  %19 = phi i32 [ %6, %5 ], [ %.pre, %activeDefragAlloc.exit ]
  %.022 = phi ptr [ null, %5 ], [ %.0.i, %activeDefragAlloc.exit ]
  %.021 = phi ptr [ %0, %5 ], [ %spec.select34, %activeDefragAlloc.exit ]
  %20 = and i32 %19, 15
  %21 = icmp eq i32 %20, 0
  br i1 %21, label %22, label %60

22:                                               ; preds = %18
  %23 = lshr exact i32 %19, 4
  %24 = and i32 %23, 15
  switch i32 %24, label %59 [
    i32 0, label %25
    i32 8, label %41
    i32 1, label %60
  ]

25:                                               ; preds = %22
  %26 = getelementptr inbounds nuw i8, ptr %.021, i64 8
  %27 = load ptr, ptr %26, align 8, !tbaa !41
  %28 = tail call ptr @sdsAllocPtr(ptr noundef %27) #10
  %29 = tail call i32 @je_get_defrag_hint(ptr noundef %28) #10
  %.not.i.i = icmp eq i32 %29, 0
  br i1 %.not.i.i, label %activeDefragSds.exit.thread, label %activeDefragSds.exit

activeDefragSds.exit.thread:                      ; preds = %25
  %30 = load i64, ptr getelementptr inbounds nuw (i8, ptr @server, i64 2592), align 8, !tbaa !5
  %31 = add nsw i64 %30, 1
  store i64 %31, ptr getelementptr inbounds nuw (i8, ptr @server, i64 2592), align 8, !tbaa !5
  br label %60

activeDefragSds.exit:                             ; preds = %25
  %32 = tail call i64 @je_malloc_usable_size(ptr noundef %28) #10
  %33 = tail call noalias ptr @zmalloc_no_tcache(i64 noundef %32) #10
  tail call void @llvm.memcpy.p0.p0.i64(ptr align 1 %33, ptr align 1 %28, i64 %32, i1 false)
  tail call void @zfree_no_tcache(ptr noundef %28) #10
  %34 = load i64, ptr getelementptr inbounds nuw (i8, ptr @server, i64 2584), align 8, !tbaa !38
  %35 = add nsw i64 %34, 1
  store i64 %35, ptr getelementptr inbounds nuw (i8, ptr @server, i64 2584), align 8, !tbaa !38
  %.not3342 = icmp eq ptr %33, null
  br i1 %.not3342, label %60, label %36

36:                                               ; preds = %activeDefragSds.exit
  %37 = ptrtoint ptr %27 to i64
  %38 = ptrtoint ptr %28 to i64
  %39 = sub i64 %37, %38
  %40 = getelementptr inbounds nuw i8, ptr %33, i64 %39
  store ptr %40, ptr %26, align 8, !tbaa !41
  br label %60

41:                                               ; preds = %22
  %42 = getelementptr inbounds nuw i8, ptr %.021, i64 8
  %43 = load ptr, ptr %42, align 8, !tbaa !41
  %44 = tail call i32 @je_get_defrag_hint(ptr noundef nonnull %.021) #10
  %.not.i37 = icmp eq i32 %44, 0
  br i1 %.not.i37, label %activeDefragAlloc.exit39.thread, label %activeDefragAlloc.exit39

activeDefragAlloc.exit39.thread:                  ; preds = %41
  %45 = load i64, ptr getelementptr inbounds nuw (i8, ptr @server, i64 2592), align 8, !tbaa !5
  %46 = add nsw i64 %45, 1
  store i64 %46, ptr getelementptr inbounds nuw (i8, ptr @server, i64 2592), align 8, !tbaa !5
  br label %60

activeDefragAlloc.exit39:                         ; preds = %41
  %47 = tail call i64 @je_malloc_usable_size(ptr noundef nonnull %.021) #10
  %48 = tail call noalias ptr @zmalloc_no_tcache(i64 noundef %47) #10
  tail call void @llvm.memcpy.p0.p0.i64(ptr align 1 %48, ptr nonnull align 1 %.021, i64 %47, i1 false)
  tail call void @zfree_no_tcache(ptr noundef nonnull %.021) #10
  %49 = load i64, ptr getelementptr inbounds nuw (i8, ptr @server, i64 2584), align 8, !tbaa !38
  %50 = add nsw i64 %49, 1
  store i64 %50, ptr getelementptr inbounds nuw (i8, ptr @server, i64 2584), align 8, !tbaa !38
  %.not32 = icmp eq ptr %48, null
  br i1 %.not32, label %60, label %51

51:                                               ; preds = %activeDefragAlloc.exit39
  %52 = ptrtoint ptr %43 to i64
  %53 = ptrtoint ptr %.021 to i64
  %54 = sub i64 %52, %53
  %55 = ptrtoint ptr %48 to i64
  %56 = add nsw i64 %54, %55
  %57 = inttoptr i64 %56 to ptr
  %58 = getelementptr inbounds nuw i8, ptr %48, i64 8
  store ptr %57, ptr %58, align 8, !tbaa !41
  br label %60

59:                                               ; preds = %22
  tail call void (ptr, i32, ptr, ...) @_serverPanic(ptr noundef nonnull @.str, i32 noundef 135, ptr noundef nonnull @.str.1) #10
  tail call void @abort() #11
  unreachable

60:                                               ; preds = %activeDefragSds.exit.thread, %activeDefragAlloc.exit39.thread, %18, %36, %activeDefragSds.exit, %51, %activeDefragAlloc.exit39, %22, %2
  %.0 = phi ptr [ null, %2 ], [ %.022, %18 ], [ %.022, %36 ], [ %.022, %activeDefragSds.exit ], [ %48, %51 ], [ null, %activeDefragAlloc.exit39 ], [ %.022, %22 ], [ null, %activeDefragAlloc.exit39.thread ], [ %.022, %activeDefragSds.exit.thread ]
  ret ptr %.0
}